target datalayout = "e-m:e-p270:32:32-p271:32:32-p272:64:64-i64:64-i128:128-f80:128-n8:16:32:64-S128"
target triple = "x86_64-pc-linux-gnu"

%"class.clang::SourceLocation" = type { i32 }
%"class.clang::FileID" = type { i32 }
%"struct.clang::edit::Commit::Edit" = type <{ i32, [4 x i8], %"class.llvm::StringRef", %"class.clang::SourceLocation", %"class.clang::edit::FileOffset", %"class.clang::edit::FileOffset", i32, i8, [7 x i8] }>
%"class.llvm::StringRef" = type { ptr, i64 }
%"class.clang::edit::FileOffset" = type { %"class.clang::FileID", i32 }
%"class.clang::CharSourceRange" = type <{ %"class.clang::SourceRange", i8, [3 x i8] }>
%"class.clang::SourceRange" = type { %"class.clang::SourceLocation", %"class.clang::SourceLocation" }
%"class.clang::edit::Commit" = type { ptr, ptr, ptr, ptr, i8, %"class.llvm::SmallVector.74", %"class.llvm::BumpPtrAllocatorImpl" }
%"class.llvm::SmallVector.74" = type { %"class.llvm::SmallVectorImpl.75", %"struct.llvm::SmallVectorStorage.78" }
%"class.llvm::SmallVectorImpl.75" = type { %"class.llvm::SmallVectorTemplateBase.76" }
%"class.llvm::SmallVectorTemplateBase.76" = type { %"class.llvm::SmallVectorTemplateCommon.77" }
%"class.llvm::SmallVectorTemplateCommon.77" = type { %"class.llvm::SmallVectorBase" }
%"class.llvm::SmallVectorBase" = type { ptr, i32, i32 }
%"struct.llvm::SmallVectorStorage.78" = type { [448 x i8] }
%"class.llvm::BumpPtrAllocatorImpl" = type { ptr, ptr, %"class.llvm::SmallVector", %"class.llvm::SmallVector.1", i64, i64 }
%"class.llvm::SmallVector" = type { %"class.llvm::SmallVectorImpl", %"struct.llvm::SmallVectorStorage" }
%"class.llvm::SmallVectorImpl" = type { %"class.llvm::SmallVectorTemplateBase" }
%"class.llvm::SmallVectorTemplateBase" = type { %"class.llvm::SmallVectorTemplateCommon" }
%"class.llvm::SmallVectorTemplateCommon" = type { %"class.llvm::SmallVectorBase" }
%"struct.llvm::SmallVectorStorage" = type { [32 x i8] }
%"class.llvm::SmallVector.1" = type { %"class.llvm::SmallVectorImpl.2" }
%"class.llvm::SmallVectorImpl.2" = type { %"class.llvm::SmallVectorTemplateBase.3" }
%"class.llvm::SmallVectorTemplateBase.3" = type { %"class.llvm::SmallVectorTemplateCommon.4" }
%"class.llvm::SmallVectorTemplateCommon.4" = type { %"class.llvm::SmallVectorBase" }

; Function Attrs: mustprogress nounwind uwtable
define linkonce_odr hidden void @_ZN5clang14SourceLocationC2Ev(ptr noundef nonnull align 4 dereferenceable(4) %0) unnamed_addr #0 comdat align 2 {
  %2 = alloca ptr, align 8
  store ptr %0, ptr %2, align 8
  %3 = load ptr, ptr %2, align 8
  %4 = getelementptr inbounds nuw %"class.clang::SourceLocation", ptr %3, i32 0, i32 0
  store i32 0, ptr %4, align 4
  ret void
}

; Function Attrs: mustprogress nounwind uwtable
define linkonce_odr hidden void @_ZN4llvm9StringRefC2Ev(ptr noundef nonnull align 8 dereferenceable(16) %0) unnamed_addr #0 comdat align 2 {
  %2 = alloca ptr, align 8
  store ptr %0, ptr %2, align 8
  %3 = load ptr, ptr %2, align 8
  %4 = getelementptr inbounds nuw %"class.llvm::StringRef", ptr %3, i32 0, i32 0
  store ptr null, ptr %4, align 8
  %5 = getelementptr inbounds nuw %"class.llvm::StringRef", ptr %3, i32 0, i32 1
  store i64 0, ptr %5, align 8
  ret void
}

; Function Attrs: mustprogress nounwind uwtable
define linkonce_odr hidden void @_ZN5clang4edit6Commit4EditC2Ev(ptr noundef nonnull align 8 dereferenceable(49) %0) unnamed_addr #0 comdat align 2 {
  %2 = alloca ptr, align 8
  store ptr %0, ptr %2, align 8
  %3 = load ptr, ptr %2, align 8
  %4 = getelementptr inbounds nuw %"struct.clang::edit::Commit::Edit", ptr %3, i32 0, i32 2
  call void @_ZN4llvm9StringRefC2Ev(ptr noundef nonnull align 8 dereferenceable(16) %4) #6
  %5 = getelementptr inbounds nuw %"struct.clang::edit::Commit::Edit", ptr %3, i32 0, i32 3
  call void @_ZN5clang14SourceLocationC2Ev(ptr noundef nonnull align 4 dereferenceable(4) %5) #6
  %6 = getelementptr inbounds nuw %"struct.clang::edit::Commit::Edit", ptr %3, i32 0, i32 4
  call void @_ZN5clang4edit10FileOffsetC2Ev(ptr noundef nonnull align 4 dereferenceable(8) %6) #6
  %7 = getelementptr inbounds nuw %"struct.clang::edit::Commit::Edit", ptr %3, i32 0, i32 5
  call void @_ZN5clang4edit10FileOffsetC2Ev(ptr noundef nonnull align 4 dereferenceable(8) %7) #6
  ret void
}

; Function Attrs: mustprogress nounwind uwtable
define linkonce_odr hidden i32 @_ZNK5clang11SourceRange8getBeginEv(ptr noundef nonnull align 4 dereferenceable(8) %0) #0 comdat align 2 {
  %2 = alloca %"class.clang::SourceLocation", align 4
  %3 = alloca ptr, align 8
  store ptr %0, ptr %3, align 8
  %4 = load ptr, ptr %3, align 8
  %5 = getelementptr inbounds nuw %"class.clang::SourceRange", ptr %4, i32 0, i32 0
  call void @llvm.memcpy.p0.p0.i64(ptr align 4 %2, ptr align 4 %5, i64 4, i1 false)
  %6 = getelementptr inbounds nuw %"class.clang::SourceLocation", ptr %2, i32 0, i32 0
  %7 = load i32, ptr %6, align 4
  ret i32 %7
}

; Function Attrs: mustprogress nounwind uwtable
define linkonce_odr hidden void @_ZN5clang6FileIDC2Ev(ptr noundef nonnull align 4 dereferenceable(4) %0) unnamed_addr #0 comdat align 2 {
  %2 = alloca ptr, align 8
  store ptr %0, ptr %2, align 8
  %3 = load ptr, ptr %2, align 8
  %4 = getelementptr inbounds nuw %"class.clang::FileID", ptr %3, i32 0, i32 0
  store i32 0, ptr %4, align 4
  ret void
}

; Function Attrs: mustprogress nounwind uwtable
define dso_local void @_ZN5clang4edit6Commit9addRemoveENS_14SourceLocationENS0_10FileOffsetEj(ptr noundef nonnull align 8 dereferenceable(600) %0, i32 %1, i64 %2, i32 noundef %3) #0 align 2 {
  %5 = alloca %"class.clang::SourceLocation", align 4
  %6 = alloca %"class.clang::edit::FileOffset", align 4
  %7 = alloca ptr, align 8
  %8 = alloca i32, align 4
  %9 = alloca %"struct.clang::edit::Commit::Edit", align 8
  %10 = getelementptr inbounds nuw %"class.clang::SourceLocation", ptr %5, i32 0, i32 0
  store i32 %1, ptr %10, align 4
  store i64 %2, ptr %6, align 4
  store ptr %0, ptr %7, align 8
  store i32 %3, ptr %8, align 4
  %11 = load ptr, ptr %7, align 8
  %12 = load i32, ptr %8, align 4
  %13 = icmp eq i32 %12, 0
  br i1 %13, label %14, label %15

14:                                               ; preds = %4
  br label %22

15:                                               ; preds = %4
  call void @_ZN5clang4edit6Commit4EditC2Ev(ptr noundef nonnull align 8 dereferenceable(49) %9) #6
  %16 = getelementptr inbounds nuw %"struct.clang::edit::Commit::Edit", ptr %9, i32 0, i32 0
  store i32 2, ptr %16, align 8
  %17 = getelementptr inbounds nuw %"struct.clang::edit::Commit::Edit", ptr %9, i32 0, i32 3
  call void @llvm.memcpy.p0.p0.i64(ptr align 8 %17, ptr align 4 %5, i64 4, i1 false)
  %18 = getelementptr inbounds nuw %"struct.clang::edit::Commit::Edit", ptr %9, i32 0, i32 4
  call void @llvm.memcpy.p0.p0.i64(ptr align 4 %18, ptr align 4 %6, i64 8, i1 false)
  %19 = load i32, ptr %8, align 4
  %20 = getelementptr inbounds nuw %"struct.clang::edit::Commit::Edit", ptr %9, i32 0, i32 6
  store i32 %19, ptr %20, align 4
  %21 = getelementptr inbounds nuw %"class.clang::edit::Commit", ptr %11, i32 0, i32 5
  call void @_ZN4llvm23SmallVectorTemplateBaseIN5clang4edit6Commit4EditELb1EE9push_backERKS4_(ptr noundef nonnull align 8 dereferenceable(16) %21, ptr noundef nonnull align 8 dereferenceable(49) %9)
  br label %22

22:                                               ; preds = %15, %14
  ret void
}

; Function Attrs: mustprogress nounwind uwtable
define linkonce_odr hidden i32 @_ZNK5clang15CharSourceRange8getBeginEv(ptr noundef nonnull align 4 dereferenceable(9) %0) #0 comdat align 2 {
  %2 = alloca %"class.clang::SourceLocation", align 4
  %3 = alloca ptr, align 8
  store ptr %0, ptr %3, align 8
  %4 = load ptr, ptr %3, align 8
  %5 = getelementptr inbounds nuw %"class.clang::CharSourceRange", ptr %4, i32 0, i32 0
  %6 = call i32 @_ZNK5clang11SourceRange8getBeginEv(ptr noundef nonnull align 4 dereferenceable(8) %5)
  %7 = getelementptr inbounds nuw %"class.clang::SourceLocation", ptr %2, i32 0, i32 0
  store i32 %6, ptr %7, align 4
  %8 = getelementptr inbounds nuw %"class.clang::SourceLocation", ptr %2, i32 0, i32 0
  %9 = load i32, ptr %8, align 4
  ret i32 %9
}

; Function Attrs: mustprogress nounwind uwtable
define linkonce_odr hidden void @_ZN5clang4edit10FileOffsetC2Ev(ptr noundef nonnull align 4 dereferenceable(8) %0) unnamed_addr #0 comdat align 2 {
  %2 = alloca ptr, align 8
  store ptr %0, ptr %2, align 8
  %3 = load ptr, ptr %2, align 8
  %4 = getelementptr inbounds nuw %"class.clang::edit::FileOffset", ptr %3, i32 0, i32 0
  call void @_ZN5clang6FileIDC2Ev(ptr noundef nonnull align 4 dereferenceable(4) %4) #6
  %5 = getelementptr inbounds nuw %"class.clang::edit::FileOffset", ptr %3, i32 0, i32 1
  store i32 0, ptr %5, align 4
  ret void
}

; Function Attrs: mustprogress nounwind uwtable
define dso_local noundef zeroext i1 @_ZN5clang4edit6Commit6removeENS_15CharSourceRangeE(ptr noundef nonnull align 8 dereferenceable(600) %0, i64 %1, i8 %2) #0 align 2 {
  %4 = alloca i1, align 1
  %5 = alloca %"class.clang::CharSourceRange", align 4
  %6 = alloca { i64, i8 }, align 4
  %7 = alloca ptr, align 8
  %8 = alloca %"class.clang::edit::FileOffset", align 4
  %9 = alloca i32, align 4
  %10 = alloca %"class.clang::CharSourceRange", align 4
  %11 = alloca { i64, i8 }, align 4
  %12 = alloca %"class.clang::SourceLocation", align 4
  %13 = alloca %"class.clang::edit::FileOffset", align 4
  %14 = getelementptr inbounds nuw { i64, i8 }, ptr %6, i32 0, i32 0
  store i64 %1, ptr %14, align 4
  %15 = getelementptr inbounds nuw { i64, i8 }, ptr %6, i32 0, i32 1
  store i8 %2, ptr %15, align 4
  call void @llvm.memcpy.p0.p0.i64(ptr align 4 %5, ptr align 4 %6, i64 12, i1 false)
  store ptr %0, ptr %7, align 8
  %16 = load ptr, ptr %7, align 8
  call void @_ZN5clang4edit10FileOffsetC2Ev(ptr noundef nonnull align 4 dereferenceable(8) %8) #6
  call void @llvm.memcpy.p0.p0.i64(ptr align 4 %10, ptr align 4 %5, i64 12, i1 false)
  call void @llvm.memcpy.p0.p0.i64(ptr align 4 %11, ptr align 4 %10, i64 12, i1 false)
  %17 = getelementptr inbounds nuw { i64, i8 }, ptr %11, i32 0, i32 0
  %18 = load i64, ptr %17, align 4
  %19 = getelementptr inbounds nuw { i64, i8 }, ptr %11, i32 0, i32 1
  %20 = load i8, ptr %19, align 4
  %21 = call noundef zeroext i1 @_ZN5clang4edit6Commit14canRemoveRangeENS_15CharSourceRangeERNS0_10FileOffsetERj(ptr noundef nonnull align 8 dereferenceable(600) %16, i64 %18, i8 %20, ptr noundef nonnull align 4 dereferenceable(8) %8, ptr noundef nonnull align 4 dereferenceable(4) %9)
  br i1 %21, label %24, label %22

22:                                               ; preds = %3
  %23 = getelementptr inbounds nuw %"class.clang::edit::Commit", ptr %16, i32 0, i32 4
  store i8 0, ptr %23, align 8
  store i1 false, ptr %4, align 1
  br label %31

24:                                               ; preds = %3
  %25 = call i32 @_ZNK5clang15CharSourceRange8getBeginEv(ptr noundef nonnull align 4 dereferenceable(9) %5)
  %26 = getelementptr inbounds nuw %"class.clang::SourceLocation", ptr %12, i32 0, i32 0
  store i32 %25, ptr %26, align 4
  call void @llvm.memcpy.p0.p0.i64(ptr align 4 %13, ptr align 4 %8, i64 8, i1 false)
  %27 = load i32, ptr %9, align 4
  %28 = getelementptr inbounds nuw %"class.clang::SourceLocation", ptr %12, i32 0, i32 0
  %29 = load i32, ptr %28, align 4
  %30 = load i64, ptr %13, align 4
  call void @_ZN5clang4edit6Commit9addRemoveENS_14SourceLocationENS0_10FileOffsetEj(ptr noundef nonnull align 8 dereferenceable(600) %16, i32 %29, i64 %30, i32 noundef %27)
  store i1 true, ptr %4, align 1
  br label %31

31:                                               ; preds = %24, %22
  %32 = load i1, ptr %4, align 1
  ret i1 %32
}