; Function Attrs: mustprogress nounwind uwtable
define dso_local noundef zeroext i1 @_ZN5clang4edit6Commit6removeENS_15CharSourceRangeE(ptr noundef nonnull align 8 dereferenceable(600) %0, i64 %1, i8 %2) local_unnamed_addr #0 align 2 {
  %4 = alloca %"struct.clang::edit::Commit::Edit", align 8
  %5 = alloca %"class.clang::edit::FileOffset", align 8
  %6 = alloca i32, align 4
  %.sroa.0.0.extract.trunc = trunc i64 %1 to i32
  store i32 0, ptr %5, align 8
  %7 = getelementptr inbounds nuw i8, ptr %5, i64 4
  store i32 0, ptr %7, align 4
  %8 = call noundef zeroext i1 @_ZN5clang4edit6Commit14canRemoveRangeENS_15CharSourceRangeERNS0_10FileOffsetERj(ptr noundef nonnull align 8 dereferenceable(600) %0, i64 %1, i8 %2, ptr noundef nonnull align 4 dereferenceable(8) %5, ptr noundef nonnull align 4 dereferenceable(4) %6)
  br i1 %8, label %11, label %9

9:                                                ; preds = %3
  %10 = getelementptr inbounds nuw i8, ptr %0, i64 32
  store i8 0, ptr %10, align 8
  br label %20

11:                                               ; preds = %3
  %.sroa.0.0.copyload = load i64, ptr %5, align 8
  %12 = load i32, ptr %6, align 4
  call void @llvm.lifetime.start.p0(i64 56, ptr nonnull %4)
  %13 = icmp eq i32 %12, 0
  br i1 %13, label %_ZN5clang4edit6Commit9addRemoveENS_14SourceLocationENS0_10FileOffsetEj.exit, label %14

14:                                               ; preds = %11
  %15 = getelementptr inbounds nuw i8, ptr %4, i64 8
  call void @llvm.memset.p0.i64(ptr noundef nonnull align 8 dereferenceable(36) %15, i8 0, i64 36, i1 false)
  store i32 2, ptr %4, align 8
  %16 = getelementptr inbounds nuw i8, ptr %4, i64 24
  store i32 %.sroa.0.0.extract.trunc, ptr %16, align 8
  %17 = getelementptr inbounds nuw i8, ptr %4, i64 28
  store i64 %.sroa.0.0.copyload, ptr %17, align 4
  %18 = getelementptr inbounds nuw i8, ptr %4, i64 44
  store i32 %12, ptr %18, align 4
  %19 = getelementptr inbounds nuw i8, ptr %0, i64 40
  call void @_ZN4llvm23SmallVectorTemplateBaseIN5clang4edit6Commit4EditELb1EE9push_backERKS4_(ptr noundef nonnull align 8 dereferenceable(16) %19, ptr noundef nonnull align 8 dereferenceable(49) %4)
  br label %_ZN5clang4edit6Commit9addRemoveENS_14SourceLocationENS0_10FileOffsetEj.exit

_ZN5clang4edit6Commit9addRemoveENS_14SourceLocationENS0_10FileOffsetEj.exit: ; preds = %11, %14
  call void @llvm.lifetime.end.p0(i64 56, ptr nonnull %4)
  br label %20

20:                                               ; preds = %_ZN5clang4edit6Commit9addRemoveENS_14SourceLocationENS0_10FileOffsetEj.exit, %9
  ret i1 %8
}